; Function Attrs: mustprogress nounwind uwtable
define dso_local noundef zeroext i1 @_ZNK31cmGeneratorExpressionDAGChecker25EvaluatingGenexExpressionEv(ptr noundef nonnull align 8 dereferenceable(126) %0) local_unnamed_addr #4 align 2 personality ptr @__gxx_personality_v0 {
  %2 = getelementptr inbounds nuw i8, ptr %0, i64 16
  %3 = tail call { i64, ptr } @_ZNKSt7__cxx1112basic_stringIcSt11char_traitsIcESaIcEEcvSt17basic_string_viewIcS2_EEv(ptr noundef nonnull align 8 dereferenceable(32) %2) #19
  %4 = extractvalue { i64, ptr } %3, 0
  %5 = icmp eq i64 %4, 0
  br i1 %5, label %_Z18cmHasLiteralPrefixILm19EEbSt17basic_string_viewIcSt11char_traitsIcEERAT__Kc.exit.thread9, label %_ZNSt11char_traitsIcE7compareEPKcS2_m.exit.i.i.i.i

_ZNSt11char_traitsIcE7compareEPKcS2_m.exit.i.i.i.i: ; preds = %1
  %6 = extractvalue { i64, ptr } %3, 1
  %.sroa.speculated.i.i.i.i = tail call i64 @llvm.umin.i64(i64 %4, i64 18)
  %bcmp.i.i = tail call i32 @bcmp(ptr %6, ptr nonnull @.str.8, i64 %.sroa.speculated.i.i.i.i)
  %7 = icmp eq i32 %bcmp.i.i, 0
  %8 = icmp ugt i64 %4, 17
  %or.cond = and i1 %8, %7
  br i1 %or.cond, label %_Z18cmHasLiteralPrefixILm12EEbSt17basic_string_viewIcSt11char_traitsIcEERAT__Kc.exit, label %_Z18cmHasLiteralPrefixILm19EEbSt17basic_string_viewIcSt11char_traitsIcEERAT__Kc.exit.thread9

_Z18cmHasLiteralPrefixILm19EEbSt17basic_string_viewIcSt11char_traitsIcEERAT__Kc.exit.thread9: ; preds = %_ZNSt11char_traitsIcE7compareEPKcS2_m.exit.i.i.i.i, %1
  %9 = tail call { i64, ptr } @_ZNKSt7__cxx1112basic_stringIcSt11char_traitsIcESaIcEEcvSt17basic_string_viewIcS2_EEv(ptr noundef nonnull align 8 dereferenceable(32) %2) #19
  %10 = extractvalue { i64, ptr } %9, 0
  %11 = icmp eq i64 %10, 0
  br i1 %11, label %_ZNSt11char_traitsIcE7compareEPKcS2_m.exit.thread.i.i.i.i7, label %_ZNSt11char_traitsIcE7compareEPKcS2_m.exit.i.i.i.i3

_ZNSt11char_traitsIcE7compareEPKcS2_m.exit.i.i.i.i3: ; preds = %_Z18cmHasLiteralPrefixILm19EEbSt17basic_string_viewIcSt11char_traitsIcEERAT__Kc.exit.thread9
  %12 = extractvalue { i64, ptr } %9, 1
  %.sroa.speculated.i.i.i.i4 = tail call i64 @llvm.umin.i64(i64 %10, i64 11)
  %bcmp.i.i5 = tail call i32 @bcmp(ptr %12, ptr nonnull @.str.9, i64 %.sroa.speculated.i.i.i.i4)
  %13 = icmp eq i32 %bcmp.i.i5, 0
  br i1 %13, label %_ZNSt11char_traitsIcE7compareEPKcS2_m.exit.thread.i.i.i.i7, label %_Z18cmHasLiteralPrefixILm12EEbSt17basic_string_viewIcSt11char_traitsIcEERAT__Kc.exit

_ZNSt11char_traitsIcE7compareEPKcS2_m.exit.thread.i.i.i.i7: ; preds = %_ZNSt11char_traitsIcE7compareEPKcS2_m.exit.i.i.i.i3, %_Z18cmHasLiteralPrefixILm19EEbSt17basic_string_viewIcSt11char_traitsIcEERAT__Kc.exit.thread9
  %14 = icmp ugt i64 %10, 10
  br label %_Z18cmHasLiteralPrefixILm12EEbSt17basic_string_viewIcSt11char_traitsIcEERAT__Kc.exit

_Z18cmHasLiteralPrefixILm12EEbSt17basic_string_viewIcSt11char_traitsIcEERAT__Kc.exit: ; preds = %_ZNSt11char_traitsIcE7compareEPKcS2_m.exit.i.i.i.i, %_ZNSt11char_traitsIcE7compareEPKcS2_m.exit.thread.i.i.i.i7, %_ZNSt11char_traitsIcE7compareEPKcS2_m.exit.i.i.i.i3
  %15 = phi i1 [ %14, %_ZNSt11char_traitsIcE7compareEPKcS2_m.exit.thread.i.i.i.i7 ], [ false, %_ZNSt11char_traitsIcE7compareEPKcS2_m.exit.i.i.i.i3 ], [ true, %_ZNSt11char_traitsIcE7compareEPKcS2_m.exit.i.i.i.i ]
  ret i1 %15
}